target datalayout = "e-m:e-p270:32:32-p271:32:32-p272:64:64-i64:64-i128:128-f80:128-n8:16:32:64-S128"
target triple = "x86_64-unknown-linux-gnu"

%"class.std::shared_ptr" = type { %"class.std::__shared_ptr" }
%"class.std::__shared_ptr" = type { ptr, %"class.std::__shared_count" }
%"class.std::__shared_count" = type { ptr }
%"class.hermes::hbc::BytecodeVisitor" = type <{ ptr, %"class.std::shared_ptr", i32, [4 x i8] }>
%"class.hermes::hbc::BytecodeVisitor.base" = type <{ ptr, %"class.std::shared_ptr", i32 }>
%"class.hermes::hbc::PrettyDisassembleVisitor" = type <{ %"class.hermes::hbc::BytecodeVisitor.base", i8, [3 x i8], ptr, ptr, i32, [4 x i8], ptr, i32, [4 x i8] }>

; Function Attrs: mustprogress nounwind uwtable
define linkonce_odr hidden noundef ptr @_ZNKSt12__shared_ptrIN6hermes3hbc14BCProviderBaseELN9__gnu_cxx12_Lock_policyE2EE3getEv(ptr noundef nonnull align 8 dereferenceable(16) %this) #0 comdat align 2 {
entry:
  %this.addr = alloca ptr, align 8
  store ptr %this, ptr %this.addr, align 8
  %this1 = load ptr, ptr %this.addr, align 8
  %_M_ptr = getelementptr inbounds %"class.std::__shared_ptr", ptr %this1, i32 0, i32 0
  %0 = load ptr, ptr %_M_ptr, align 8
  ret ptr %0
}

; Function Attrs: mustprogress nounwind uwtable
define linkonce_odr hidden noundef ptr @_ZNKSt19__shared_ptr_accessIN6hermes3hbc14BCProviderBaseELN9__gnu_cxx12_Lock_policyE2ELb0ELb0EE6_M_getEv(ptr noundef nonnull align 1 dereferenceable(1) %this) #0 comdat align 2 {
entry:
  %this.addr = alloca ptr, align 8
  store ptr %this, ptr %this.addr, align 8
  %this1 = load ptr, ptr %this.addr, align 8
  %call = call noundef ptr @_ZNKSt12__shared_ptrIN6hermes3hbc14BCProviderBaseELN9__gnu_cxx12_Lock_policyE2EE3getEv(ptr noundef nonnull align 8 dereferenceable(16) %this1) #11
  ret ptr %call
}

; Function Attrs: mustprogress nounwind uwtable
define linkonce_odr hidden noundef ptr @_ZNKSt19__shared_ptr_accessIN6hermes3hbc14BCProviderBaseELN9__gnu_cxx12_Lock_policyE2ELb0ELb0EEptEv(ptr noundef nonnull align 1 dereferenceable(1) %this) #0 comdat align 2 {
entry:
  %this.addr = alloca ptr, align 8
  store ptr %this, ptr %this.addr, align 8
  %this1 = load ptr, ptr %this.addr, align 8
  %call = call noundef ptr @_ZNKSt19__shared_ptr_accessIN6hermes3hbc14BCProviderBaseELN9__gnu_cxx12_Lock_policyE2ELb0ELb0EE6_M_getEv(ptr noundef nonnull align 1 dereferenceable(1) %this1) #11
  ret ptr %call
}

; Function Attrs: mustprogress nounwind uwtable
define hidden void @_ZN6hermes3hbc24PrettyDisassembleVisitor11beforeStartEjPKh(ptr noundef nonnull align 8 dereferenceable(68) %this, i32 noundef %funcId, ptr noundef %bytecodeStart) unnamed_addr #0 align 2 {
entry:
  %this.addr = alloca ptr, align 8
  %funcId.addr = alloca i32, align 4
  %bytecodeStart.addr = alloca ptr, align 8
  store ptr %this, ptr %this.addr, align 8
  store i32 %funcId, ptr %funcId.addr, align 4
  store ptr %bytecodeStart, ptr %bytecodeStart.addr, align 8
  %this1 = load ptr, ptr %this.addr, align 8
  %0 = load ptr, ptr %bytecodeStart.addr, align 8
  %bytecodeStart_ = getelementptr inbounds %"class.hermes::hbc::PrettyDisassembleVisitor", ptr %this1, i32 0, i32 4
  store ptr %0, ptr %bytecodeStart_, align 8
  %bcProvider_ = getelementptr inbounds %"class.hermes::hbc::BytecodeVisitor", ptr %this1, i32 0, i32 1
  %call = call noundef ptr @_ZNKSt19__shared_ptr_accessIN6hermes3hbc14BCProviderBaseELN9__gnu_cxx12_Lock_policyE2ELb0ELb0EEptEv(ptr noundef nonnull align 1 dereferenceable(1) %bcProvider_) #11
  %1 = load i32, ptr %funcId.addr, align 4
  %call2 = call noundef i32 @_ZNK6hermes3hbc14BCProviderBase27getVirtualOffsetForFunctionEj(ptr noundef nonnull align 8 dereferenceable(280) %call, i32 noundef %1)
  %funcVirtualOffset_ = getelementptr inbounds %"class.hermes::hbc::PrettyDisassembleVisitor", ptr %this1, i32 0, i32 5
  store i32 %call2, ptr %funcVirtualOffset_, align 8
  ret void
}