; Function Attrs: mustprogress nounwind uwtable
define hidden void @_ZN6hermes3hbc24PrettyDisassembleVisitor11beforeStartEjPKh(ptr nocapture noundef nonnull align 8 dereferenceable(68) %this, i32 noundef %funcId, ptr noundef %bytecodeStart) unnamed_addr #1 align 2 {
entry:
  %bytecodeStart_ = getelementptr inbounds i8, ptr %this, i64 40
  store ptr %bytecodeStart, ptr %bytecodeStart_, align 8
  %bcProvider_ = getelementptr inbounds i8, ptr %this, i64 8
  %0 = load ptr, ptr %bcProvider_, align 8
  %call2 = tail call noundef i32 @_ZNK6hermes3hbc14BCProviderBase27getVirtualOffsetForFunctionEj(ptr noundef nonnull align 8 dereferenceable(280) %0, i32 noundef %funcId) #17
  %funcVirtualOffset_ = getelementptr inbounds i8, ptr %this, i64 48
  store i32 %call2, ptr %funcVirtualOffset_, align 8
  ret void
}